; Function Attrs: inlinehint mustprogress nofree nounwind willreturn uwtable
define internal fastcc range(i32 -32, 1) i32 @pmix_bfrops_base_tma_copy_netstats(ptr noundef writeonly captures(none) %0, ptr noundef readonly captures(none) %1) unnamed_addr #15 {
  %calloc.i = tail call dereferenceable_or_null(56) ptr @calloc(i64 1, i64 56)
  %3 = icmp eq ptr %calloc.i, null
  br i1 %3, label %26, label %4, !prof !116

4:                                                ; preds = %2
  store ptr %calloc.i, ptr %0, align 8, !tbaa !26
  %5 = load ptr, ptr %1, align 8, !tbaa !111
  %.not.i = icmp eq ptr %5, null
  br i1 %.not.i, label %pmix_bfrops_base_tma_populate_netstats.exit, label %6

6:                                                ; preds = %4
  %7 = tail call noalias ptr @strdup(ptr noundef nonnull readonly %5) #24
  store ptr %7, ptr %calloc.i, align 8, !tbaa !111
  br label %pmix_bfrops_base_tma_populate_netstats.exit

pmix_bfrops_base_tma_populate_netstats.exit:      ; preds = %4, %6
  %8 = getelementptr inbounds nuw i8, ptr %1, i64 8
  %9 = load i64, ptr %8, align 8, !tbaa !274
  %10 = getelementptr inbounds nuw i8, ptr %calloc.i, i64 8
  store i64 %9, ptr %10, align 8, !tbaa !274
  %11 = getelementptr inbounds nuw i8, ptr %1, i64 16
  %12 = load i64, ptr %11, align 8, !tbaa !275
  %13 = getelementptr inbounds nuw i8, ptr %calloc.i, i64 16
  store i64 %12, ptr %13, align 8, !tbaa !275
  %14 = getelementptr inbounds nuw i8, ptr %1, i64 24
  %15 = load i64, ptr %14, align 8, !tbaa !276
  %16 = getelementptr inbounds nuw i8, ptr %calloc.i, i64 24
  store i64 %15, ptr %16, align 8, !tbaa !276
  %17 = getelementptr inbounds nuw i8, ptr %1, i64 32
  %18 = load i64, ptr %17, align 8, !tbaa !277
  %19 = getelementptr inbounds nuw i8, ptr %calloc.i, i64 32
  store i64 %18, ptr %19, align 8, !tbaa !277
  %20 = getelementptr inbounds nuw i8, ptr %1, i64 40
  %21 = load i64, ptr %20, align 8, !tbaa !278
  %22 = getelementptr inbounds nuw i8, ptr %calloc.i, i64 40
  store i64 %21, ptr %22, align 8, !tbaa !278
  %23 = getelementptr inbounds nuw i8, ptr %1, i64 48
  %24 = load i64, ptr %23, align 8, !tbaa !279
  %25 = getelementptr inbounds nuw i8, ptr %calloc.i, i64 48
  store i64 %24, ptr %25, align 8, !tbaa !279
  br label %26

26:                                               ; preds = %2, %pmix_bfrops_base_tma_populate_netstats.exit
  %.0 = phi i32 [ 0, %pmix_bfrops_base_tma_populate_netstats.exit ], [ -32, %2 ]
  ret i32 %.0
}